Certificate:
    Data:
        Version: 1 (0x0)
        Serial Number: 2 (0x2)
        Signature Algorithm: sha256WithRSAEncryption
        Issuer: C=DE, ST=NW, L=Steinfurt, O=FH-Muenster, OU=NPLAB, CN=dtls-ca.nplab.de
        Validity
            Not Before: Aug 19 16:24:30 2021 GMT
            Not After : Aug 19 16:24:30 2022 GMT
        Subject: C=DE, ST=NW, L=Steinfurt, O=FH-Muenster, OU=NPLAB, CN=dtls-client.nplab.de
        Subject Public Key Info:
            Public Key Algorithm: rsaEncryption
                RSA Public-Key: (2048 bit)
                Modulus:
                    00:ec:82:03:9e:65:00:df:4b:b0:da:c1:a2:ca:c1:
                    09:c6:6b:70:c7:ec:b0:32:9b:77:ce:7e:1a:24:62:
                    71:c2:03:9b:88:b2:8a:35:5b:aa:32:c4:b4:45:24:
                    ba:4b:6e:aa:8c:ad:e7:af:ce:80:82:45:33:04:ac:
                    ff:44:dc:15:89:1e:ee:a2:b3:94:ce:67:54:20:13:
                    45:e7:f5:46:e6:a8:1f:10:11:8a:78:4f:95:bc:02:
                    10:5d:77:71:a0:e3:2a:8d:1a:97:96:44:b1:22:7c:
                    44:f5:c2:93:e0:4c:c5:80:c2:fd:d6:ba:4c:b2:78:
                    a4:d9:d1:9f:f5:14:e4:27:33:07:7b:0b:88:42:14:
                    73:65:a0:9f:0a:99:cc:22:b4:73:5b:5c:20:f9:9f:
                    ca:b2:4c:35:ea:ff:0d:cf:01:a1:de:d7:00:82:79:
                    9f:13:68:93:24:cd:c5:12:ff:52:0d:31:8e:fe:68:
                    7d:b5:fd:f3:7d:b1:f7:1b:87:1f:b6:11:9e:be:bb:
                    23:9b:05:c4:01:c1:14:28:b0:17:3f:b4:45:80:7a:
                    38:51:8d:e8:75:27:84:ab:89:35:80:6b:e4:5e:0a:
                    01:01:f1:c0:71:43:eb:5e:48:3b:79:1e:9e:a9:73:
                    67:26:ff:0c:11:51:46:7a:a9:bf:19:c4:c0:8f:19:
                    ed:89
                Exponent: 65537 (0x10001)
    Signature Algorithm: sha256WithRSAEncryption
         a1:bf:51:2c:9f:cd:79:07:0f:db:d7:d8:d0:e8:15:67:03:d4:
         e5:a7:6b:4a:9d:03:32:40:cb:37:68:9e:ca:22:55:38:0a:a5:
         74:4f:85:0e:45:89:df:cd:a4:1e:40:9d:d0:2b:27:e3:c4:be:
         3e:ab:af:2e:59:45:d8:7e:b7:c3:60:1b:d2:07:2d:fb:8d:76:
         28:43:3d:3e:50:ed:d1:2f:7f:d0:80:12:f8:0c:b0:82:63:05:
         1e:d9:22:20:f3:68:fd:77:78:bf:91:ae:ab:b1:ae:11:53:d2:
         4e:2f:5f:94:4f:ea:de:31:ab:98:a6:5a:b1:21:4a:0c:58:b1:
         b8:29:ce:61:d2:af:2d:69:d4:98:0b:ca:39:9e:64:4b:b7:c0:
         2d:7c:40:3d:89:f1:21:5f:89:21:38:ec:33:02:c6:de:81:3f:
         b1:31:48:9a:6e:13:7a:a8:e9:6c:6e:49:58:64:70:1d:7f:ac:
         2a:9d:22:7c:60:0d:32:ab:6a:e0:1c:2e:19:65:d8:c3:96:c2:
         e1:da:97:5b:a3:b7:c7:03:a4:fa:b6:08:49:b7:ca:9b:f6:6c:
         85:56:68:2f:53:45:25:6e:0b:14:7a:a0:23:39:8f:6b:7e:86:
         9f:37:6a:a7:e4:5a:e9:60:13:a2:0d:71:2f:d5:96:0f:aa:52:
         a4:99:b3:ce
-----BEGIN CERTIFICATE-----
MIIDVjCCAj4CAQIwDQYJKoZIhvcNAQELBQAwbzELMAkGA1UEBhMCREUxCzAJBgNV
BAgMAk5XMRIwEAYDVQQHDAlTdGVpbmZ1cnQxFDASBgNVBAoMC0ZILU11ZW5zdGVy
MQ4wDAYDVQQLDAVOUExBQjEZMBcGA1UEAwwQZHRscy1jYS5ucGxhYi5kZTAeFw0y
MTA4MTkxNjI0MzBaFw0yMjA4MTkxNjI0MzBaMHMxCzAJBgNVBAYTAkRFMQswCQYD
VQQIDAJOVzESMBAGA1UEBwwJU3RlaW5mdXJ0MRQwEgYDVQQKDAtGSC1NdWVuc3Rl
cjEOMAwGA1UECwwFTlBMQUIxHTAbBgNVBAMMFGR0bHMtY2xpZW50Lm5wbGFiLmRl
MIIBIjANBgkqhkiG9w0BAQEFAAOCAQ8AMIIBCgKCAQEA7IIDnmUA30uw2sGiysEJ
xmtwx+ywMpt3zn4aJGJxwgObiLKKNVuqMsS0RSS6S26qjK3nr86AgkUzBKz/RNwV
iR7uorOUzmdUIBNF5/VG5qgfEBGKeE+VvAIQXXdxoOMqjRqXlkSxInxE9cKT4EzF
gML91rpMsnik2dGf9RTkJzMHewuIQhRzZaCfCpnMIrRzW1wg+Z/Kskw16v8NzwGh
3tcAgnmfE2iTJM3FEv9SDTGO/mh9tf3zfbH3G4cfthGevrsjmwXEAcEUKLAXP7RF
gHo4UY3odSeEq4k1gGvkXgoBAfHAcUPrXkg7eR6eqXNnJv8MEVFGeqm/GcTAjxnt
iQIDAQABMA0GCSqGSIb3DQEBCwUAA4IBAQChv1Esn815Bw/b19jQ6BVnA9Tlp2tK
nQMyQMs3aJ7KIlU4CqV0T4UORYnfzaQeQJ3QKyfjxL4+q68uWUXYfrfDYBvSBy37
jXYoQz0+UO3RL3/QgBL4DLCCYwUe2SIg82j9d3i/ka6rsa4RU9JOL1+UT+reMauY
plqxIUoMWLG4Kc5h0q8tadSYC8o5nmRLt8AtfEA9ifEhX4khOOwzAsbegT+xMUia
bhN6qOlsbklYZHAdf6wqnSJ8YA0yq2rgHC4ZZdjDlsLh2pdbo7fHA6T6tghJt8qb
9myFVmgvU0UlbgsUeqAjOY9rfoafN2qn5FrpYBOiDXEv1ZYPqlKkmbPO
-----END CERTIFICATE-----
