Certificate:
    Data:
        Version: 1 (0x0)
        Serial Number: 1 (0x1)
        Signature Algorithm: sha256WithRSAEncryption
        Issuer: C=DE, ST=NW, L=Steinfurt, O=FH-Muenster, OU=NPLAB, CN=dtls-ca.nplab.de
        Validity
            Not Before: Aug 19 16:24:23 2021 GMT
            Not After : Aug 19 16:24:23 2022 GMT
        Subject: C=DE, ST=NW, L=Steinfurt, O=FH-Muenster, OU=NPLAB, CN=dtls-server.nplab.de
        Subject Public Key Info:
            Public Key Algorithm: rsaEncryption
                RSA Public-Key: (2048 bit)
                Modulus:
                    00:d3:e3:24:7f:3c:55:88:e1:8e:6b:a3:a0:c3:dc:
                    ea:87:d9:b6:96:e0:7e:6e:ba:26:b5:1f:0f:26:40:
                    cd:86:d0:e3:43:b9:d6:a0:00:72:91:0c:b6:80:2d:
                    12:83:96:2c:d4:9e:7d:2f:02:31:98:dd:1c:69:56:
                    78:7f:58:f6:5a:7e:1c:0b:a5:6e:6f:93:34:85:79:
                    d6:c8:6f:be:c8:6c:7e:d5:b3:a6:9e:5e:54:1d:7c:
                    9c:0b:f2:a2:a6:cb:44:0d:d6:fe:f8:e9:f5:e8:1f:
                    ac:91:18:de:ea:72:80:a8:e6:a5:8e:d1:28:9c:a5:
                    d8:12:9c:5a:24:16:be:d3:45:da:9c:2e:aa:33:e4:
                    6f:6c:e0:e8:fd:bf:9f:91:85:10:74:5e:eb:b4:4a:
                    9d:cc:91:a7:bf:87:8d:27:f5:3e:5d:d5:0a:f6:3f:
                    9d:a6:ca:ea:30:32:e0:97:76:37:d6:ff:00:66:00:
                    c8:77:57:9c:e7:25:c2:37:9a:c6:5b:a0:9b:3b:30:
                    56:ae:85:1a:e6:7c:ec:15:b5:9e:66:fa:bc:62:cb:
                    ad:b9:6a:a5:16:42:a6:8f:96:64:ad:15:0f:10:9b:
                    97:2d:e5:34:13:ce:33:82:c8:76:1a:5b:8d:be:f7:
                    1c:f1:5b:ca:f2:82:bd:b9:34:67:fd:98:d0:fa:a0:
                    32:7d
                Exponent: 65537 (0x10001)
    Signature Algorithm: sha256WithRSAEncryption
         58:ca:40:aa:15:52:78:2f:b6:0d:c0:01:17:f9:34:3c:64:58:
         10:04:d3:9e:fe:c3:a2:3a:e6:48:d2:b0:26:1c:31:68:9d:96:
         e8:80:1c:c5:b8:29:e0:b1:b2:ad:c4:6b:6e:3b:be:44:a4:aa:
         ec:e6:2f:76:ba:e5:6c:e4:a9:7e:38:df:75:ba:fc:5c:3a:1d:
         fe:c4:c8:2f:e6:e7:77:d1:65:36:de:90:2d:5a:66:ad:84:d9:
         3c:e3:c8:42:d3:e6:0b:3b:dd:c0:e1:d3:95:cd:d7:8f:15:22:
         39:82:7b:f5:06:38:ca:7a:6e:76:d6:c0:9e:6d:ba:a9:d0:7a:
         3e:5d:e4:fb:8a:e8:0a:af:36:9e:4f:aa:1a:12:de:b1:04:c5:
         5f:cf:df:74:eb:6a:c5:9d:0d:20:6c:33:c9:be:08:1e:5a:c1:
         a7:22:13:f2:c0:77:a3:92:f7:c2:ae:f7:6c:cc:16:5d:c6:24:
         e0:c6:91:2b:d4:6a:40:8a:c5:d7:2d:47:09:b4:71:88:d5:e7:
         b6:ab:89:1c:44:44:a2:96:d3:77:c8:7e:55:59:13:f7:05:3e:
         c6:c6:7e:cb:78:85:d6:df:31:58:c5:f1:b5:59:95:46:48:e6:
         98:b1:c5:ca:6a:a7:31:dc:3e:8a:49:b2:82:67:82:fd:e9:2f:
         e0:58:41:3b
-----BEGIN CERTIFICATE-----
MIIDVjCCAj4CAQEwDQYJKoZIhvcNAQELBQAwbzELMAkGA1UEBhMCREUxCzAJBgNV
BAgMAk5XMRIwEAYDVQQHDAlTdGVpbmZ1cnQxFDASBgNVBAoMC0ZILU11ZW5zdGVy
MQ4wDAYDVQQLDAVOUExBQjEZMBcGA1UEAwwQZHRscy1jYS5ucGxhYi5kZTAeFw0y
MTA4MTkxNjI0MjNaFw0yMjA4MTkxNjI0MjNaMHMxCzAJBgNVBAYTAkRFMQswCQYD
VQQIDAJOVzESMBAGA1UEBwwJU3RlaW5mdXJ0MRQwEgYDVQQKDAtGSC1NdWVuc3Rl
cjEOMAwGA1UECwwFTlBMQUIxHTAbBgNVBAMMFGR0bHMtc2VydmVyLm5wbGFiLmRl
MIIBIjANBgkqhkiG9w0BAQEFAAOCAQ8AMIIBCgKCAQEA0+MkfzxViOGOa6Ogw9zq
h9m2luB+bromtR8PJkDNhtDjQ7nWoABykQy2gC0Sg5Ys1J59LwIxmN0caVZ4f1j2
Wn4cC6Vub5M0hXnWyG++yGx+1bOmnl5UHXycC/KipstEDdb++On16B+skRje6nKA
qOaljtEonKXYEpxaJBa+00XanC6qM+RvbODo/b+fkYUQdF7rtEqdzJGnv4eNJ/U+
XdUK9j+dpsrqMDLgl3Y31v8AZgDId1ec5yXCN5rGW6CbOzBWroUa5nzsFbWeZvq8
YsutuWqlFkKmj5ZkrRUPEJuXLeU0E84zgsh2GluNvvcc8VvK8oK9uTRn/ZjQ+qAy
fQIDAQABMA0GCSqGSIb3DQEBCwUAA4IBAQBYykCqFVJ4L7YNwAEX+TQ8ZFgQBNOe
/sOiOuZI0rAmHDFonZbogBzFuCngsbKtxGtuO75EpKrs5i92uuVs5Kl+ON91uvxc
Oh3+xMgv5ud30WU23pAtWmathNk848hC0+YLO93A4dOVzdePFSI5gnv1BjjKem52
1sCebbqp0Ho+XeT7iugKrzaeT6oaEt6xBMVfz99062rFnQ0gbDPJvggeWsGnIhPy
wHejkvfCrvdszBZdxiTgxpEr1GpAisXXLUcJtHGI1ee2q4kcRESiltN3yH5VWRP3
BT7Gxn7LeIXW3zFYxfG1WZVGSOaYscXKaqcx3D6KSbKCZ4L96S/gWEE7
-----END CERTIFICATE-----
